; Function Attrs: mustprogress uwtable
define void @_ZN2cv3hal9cvt16f32fEPKNS_6hfloatEPfi(ptr nocapture noundef readonly %0, ptr nocapture noundef writeonly %1, i32 noundef %2) local_unnamed_addr #0 personality ptr @__gxx_personality_v0 {
  %4 = alloca %"class.cv::utils::trace::details::Region", align 8
  %5 = alloca %"class.cv::utils::trace::details::Region", align 8
  call void @_ZN2cv5utils5trace7details6RegionC1ERKNS3_21LocationStaticStorageE(ptr noundef nonnull align 8 dereferenceable(12) %5, ptr noundef nonnull align 8 dereferenceable(32) @_ZZN2cv3hal9cvt16f32fEPKNS_6hfloatEPfiE24__cv_trace_location_fn16)
  call void @llvm.lifetime.start.p0(i64 16, ptr nonnull %4)
  invoke void @_ZN2cv5utils5trace7details6RegionC1ERKNS3_21LocationStaticStorageE(ptr noundef nonnull align 8 dereferenceable(12) %4, ptr noundef nonnull align 8 dereferenceable(32) @_ZZN2cv3hal12cpu_baseline9cvt16f32fEPKNS_6hfloatEPfiE24__cv_trace_location_fn40)
          to label %.noexc unwind label %38

.noexc:                                           ; preds = %3
  %6 = icmp sgt i32 %2, 0
  br i1 %6, label %.lr.ph.preheader.i, label %._crit_edge.i

.lr.ph.preheader.i:                               ; preds = %.noexc
  %wide.trip.count.i = zext nneg i32 %2 to i64
  br label %.lr.ph.i

.lr.ph.i:                                         ; preds = %_ZNK2cv6hfloatcvfEv.exit.i, %.lr.ph.preheader.i
  %indvars.iv.i = phi i64 [ 0, %.lr.ph.preheader.i ], [ %indvars.iv.next.i, %_ZNK2cv6hfloatcvfEv.exit.i ]
  %7 = getelementptr inbounds %"class.cv::hfloat", ptr %0, i64 %indvars.iv.i
  %8 = load i16, ptr %7, align 2
  %9 = zext i16 %8 to i32
  %10 = shl nuw nsw i32 %9, 13
  %11 = and i32 %10, 268427264
  %12 = add nuw nsw i32 %11, 939524096
  %13 = and i32 %9, 31744
  switch i32 %13, label %_ZNK2cv6hfloatcvfEv.exit.i [
    i32 31744, label %14
    i32 0, label %16
  ]

14:                                               ; preds = %.lr.ph.i
  %15 = or i32 %10, 1879048192
  br label %_ZNK2cv6hfloatcvfEv.exit.i

16:                                               ; preds = %.lr.ph.i
  %17 = add nuw nsw i32 %11, 947912704
  %18 = bitcast i32 %17 to float
  %19 = fadd float %18, 0xBF10000000000000
  %20 = bitcast float %19 to i32
  br label %_ZNK2cv6hfloatcvfEv.exit.i

_ZNK2cv6hfloatcvfEv.exit.i:                       ; preds = %16, %14, %.lr.ph.i
  %21 = phi i32 [ %15, %14 ], [ %20, %16 ], [ %12, %.lr.ph.i ]
  %.signext.i.i = sext i16 %8 to i32
  %22 = and i32 %.signext.i.i, -2147483648
  %23 = or i32 %21, %22
  %24 = getelementptr inbounds float, ptr %1, i64 %indvars.iv.i
  store i32 %23, ptr %24, align 4
  %indvars.iv.next.i = add nuw nsw i64 %indvars.iv.i, 1
  %exitcond.not.i = icmp eq i64 %indvars.iv.next.i, %wide.trip.count.i
  br i1 %exitcond.not.i, label %._crit_edge.i, label %.lr.ph.i, !llvm.loop !4

._crit_edge.i:                                    ; preds = %_ZNK2cv6hfloatcvfEv.exit.i, %.noexc
  %25 = getelementptr inbounds i8, ptr %4, i64 8
  %26 = load i32, ptr %25, align 8
  %.not.i.i = icmp eq i32 %26, 0
  br i1 %.not.i.i, label %31, label %27

27:                                               ; preds = %._crit_edge.i
  invoke void @_ZN2cv5utils5trace7details6Region7destroyEv(ptr noundef nonnull align 8 dereferenceable(12) %4)
          to label %31 unwind label %28

28:                                               ; preds = %27
  %29 = landingpad { ptr, i32 }
          catch ptr null
  %30 = extractvalue { ptr, i32 } %29, 0
  call void @__clang_call_terminate(ptr %30) #14
  unreachable

31:                                               ; preds = %27, %._crit_edge.i
  call void @llvm.lifetime.end.p0(i64 16, ptr nonnull %4)
  %32 = getelementptr inbounds i8, ptr %5, i64 8
  %33 = load i32, ptr %32, align 8
  %.not.i = icmp eq i32 %33, 0
  br i1 %.not.i, label %_ZN2cv5utils5trace7details6RegionD2Ev.exit, label %34

34:                                               ; preds = %31
  invoke void @_ZN2cv5utils5trace7details6Region7destroyEv(ptr noundef nonnull align 8 dereferenceable(12) %5)
          to label %_ZN2cv5utils5trace7details6RegionD2Ev.exit unwind label %35

35:                                               ; preds = %34
  %36 = landingpad { ptr, i32 }
          catch ptr null
  %37 = extractvalue { ptr, i32 } %36, 0
  call void @__clang_call_terminate(ptr %37) #14
  unreachable

_ZN2cv5utils5trace7details6RegionD2Ev.exit:       ; preds = %31, %34
  ret void

38:                                               ; preds = %3
  %39 = landingpad { ptr, i32 }
          cleanup
  call void @_ZN2cv5utils5trace7details6RegionD2Ev(ptr noundef nonnull align 8 dereferenceable(12) %5) #15
  resume { ptr, i32 } %39
}